target datalayout = "e-m:e-p270:32:32-p271:32:32-p272:64:64-i64:64-i128:128-f80:128-n8:16:32:64-S128"
target triple = "x86_64-pc-linux-gnu"

%"class.cv::Size_" = type { i32, i32 }
%"class.perf::TestBase" = type { %"class.testing::Test", %"class.std::vector", %"class.std::vector", i32, %"class.std::vector.0", i64, i64, i64, i32, i32, i32, i32, i32, [4 x i8], %"struct.perf::performance_metrics", i8, %"class.perf::TestBase::_declareHelper" }
%"class.testing::Test" = type { ptr, %"class.testing::internal::scoped_ptr" }
%"class.testing::internal::scoped_ptr" = type { ptr }
%"class.std::vector" = type { %"struct.std::_Vector_base" }
%"struct.std::_Vector_base" = type { %"struct.std::_Vector_base<std::pair<int, cv::Size_<int>>, std::allocator<std::pair<int, cv::Size_<int>>>>::_Vector_impl" }
%"struct.std::_Vector_base<std::pair<int, cv::Size_<int>>, std::allocator<std::pair<int, cv::Size_<int>>>>::_Vector_impl" = type { %"struct.std::_Vector_base<std::pair<int, cv::Size_<int>>, std::allocator<std::pair<int, cv::Size_<int>>>>::_Vector_impl_data" }
%"struct.std::_Vector_base<std::pair<int, cv::Size_<int>>, std::allocator<std::pair<int, cv::Size_<int>>>>::_Vector_impl_data" = type { ptr, ptr, ptr }
%"class.std::vector.0" = type { %"struct.std::_Vector_base.1" }
%"struct.std::_Vector_base.1" = type { %"struct.std::_Vector_base<long, std::allocator<long>>::_Vector_impl" }
%"struct.std::_Vector_base<long, std::allocator<long>>::_Vector_impl" = type { %"struct.std::_Vector_base<long, std::allocator<long>>::_Vector_impl_data" }
%"struct.std::_Vector_base<long, std::allocator<long>>::_Vector_impl_data" = type { ptr, ptr, ptr }
%"struct.perf::performance_metrics" = type <{ i64, i64, i32, i32, double, double, double, double, double, double, double, i32, [4 x i8] }>
%"class.perf::TestBase::_declareHelper" = type { ptr }
%"class.opencv_test::TestFunctional" = type { %"class.cv::Mat", %"class.cv::Mat", %"class.cv::Mat", %"class.cv::Mat", %"class.cv::Scalar_" }
%"class.cv::Mat" = type { i32, i32, i32, i32, ptr, ptr, ptr, ptr, ptr, ptr, %"struct.cv::MatSize", %"struct.cv::MatStep" }
%"struct.cv::MatSize" = type { ptr }
%"struct.cv::MatStep" = type { ptr, [2 x i64] }
%"class.cv::Scalar_" = type { %"class.cv::Vec" }
%"class.cv::Vec" = type { %"class.cv::Matx" }
%"class.cv::Matx" = type { [4 x double] }
%class.anon = type { ptr, ptr, ptr }

; Function Attrs: mustprogress nounwind uwtable
define linkonce_odr hidden void @_ZN4perf8TestBase11setVerifiedEv(ptr noundef nonnull align 8 dereferenceable(248) %0) #4 comdat align 2 {
  %2 = alloca ptr, align 8
  store ptr %0, ptr %2, align 8
  %3 = load ptr, ptr %2, align 8
  %4 = getelementptr inbounds %"class.perf::TestBase", ptr %3, i32 0, i32 15
  store i8 1, ptr %4, align 8
  ret void
}

; Function Attrs: mustprogress uwtable
define hidden void @_ZN11opencv_test29SobelEdgeDetector_OpenCV_Test12PerfTestBodyEv(ptr noundef nonnull align 8 dereferenceable(673) %0) unnamed_addr #5 align 2 personality ptr @__gxx_personality_v0 {
  %2 = alloca ptr, align 8
  %3 = alloca %"class.cv::Size_", align 4
  %4 = alloca %"class.cv::Size_", align 4
  %5 = alloca %"class.cv::Mat", align 8
  %6 = alloca %"class.cv::Mat", align 8
  %7 = alloca %"class.cv::Mat", align 8
  %8 = alloca %class.anon, align 8
  %9 = alloca ptr, align 8
  %10 = alloca i32, align 4
  store ptr %0, ptr %2, align 8
  %11 = load ptr, ptr %2, align 8
  %12 = getelementptr inbounds i8, ptr %11, i64 248
  %13 = call noundef nonnull align 4 dereferenceable(8) ptr @_ZNK7testing18WithParamInterfaceIN2cv5Size_IiEEE8GetParamEv(ptr noundef nonnull align 8 dereferenceable(8) %12)
  call void @llvm.memcpy.p0.p0.i64(ptr align 4 %3, ptr align 4 %13, i64 8, i1 false)
  %14 = getelementptr inbounds i8, ptr %11, i64 256
  call void @llvm.memcpy.p0.p0.i64(ptr align 4 %4, ptr align 4 %3, i64 8, i1 false)
  %15 = load i64, ptr %4, align 4
  call void @_ZN11opencv_test14TestFunctional13initMatsRandUEiN2cv5Size_IiEEib(ptr noundef nonnull align 8 dereferenceable(416) %14, i32 noundef 16, i64 %15, i32 noundef 16, i1 noundef zeroext false)
  call void @_ZN2cv3MatC1Ev(ptr noundef nonnull align 8 dereferenceable(96) %5) #3
  call void @_ZN2cv3MatC1Ev(ptr noundef nonnull align 8 dereferenceable(96) %6) #3
  call void @_ZN2cv3MatC1Ev(ptr noundef nonnull align 8 dereferenceable(96) %7) #3
  %16 = getelementptr inbounds %class.anon, ptr %8, i32 0, i32 0
  store ptr %5, ptr %16, align 8
  %17 = getelementptr inbounds %class.anon, ptr %8, i32 0, i32 1
  store ptr %6, ptr %17, align 8
  %18 = getelementptr inbounds %class.anon, ptr %8, i32 0, i32 2
  store ptr %7, ptr %18, align 8
  %19 = getelementptr inbounds i8, ptr %11, i64 256
  %20 = getelementptr inbounds %"class.opencv_test::TestFunctional", ptr %19, i32 0, i32 0
  %21 = getelementptr inbounds i8, ptr %11, i64 256
  %22 = getelementptr inbounds %"class.opencv_test::TestFunctional", ptr %21, i32 0, i32 2
  invoke void @"_ZZN11opencv_test29SobelEdgeDetector_OpenCV_Test12PerfTestBodyEvENK3$_0clERKN2cv3MatERS3_"(ptr noundef nonnull align 8 dereferenceable(24) %8, ptr noundef nonnull align 8 dereferenceable(96) %20, ptr noundef nonnull align 8 dereferenceable(96) %22)
          to label %23 unwind label %40

23:                                               ; preds = %1
  br label %24

24:                                               ; preds = %39, %23
  %25 = invoke noundef zeroext i1 @_ZN4perf8TestBase4nextEv(ptr noundef nonnull align 8 dereferenceable(248) %11)
          to label %26 unwind label %40

26:                                               ; preds = %24
  br i1 %25, label %27, label %30

27:                                               ; preds = %26
  %28 = invoke noundef zeroext i1 @_ZN4perf8TestBase10startTimerEv(ptr noundef nonnull align 8 dereferenceable(248) %11)
          to label %29 unwind label %40

29:                                               ; preds = %27
  br label %30

30:                                               ; preds = %29, %26
  %31 = phi i1 [ false, %26 ], [ %28, %29 ]
  br i1 %31, label %32, label %44

32:                                               ; preds = %30
  %33 = getelementptr inbounds i8, ptr %11, i64 256
  %34 = getelementptr inbounds %"class.opencv_test::TestFunctional", ptr %33, i32 0, i32 0
  %35 = getelementptr inbounds i8, ptr %11, i64 256
  %36 = getelementptr inbounds %"class.opencv_test::TestFunctional", ptr %35, i32 0, i32 2
  invoke void @"_ZZN11opencv_test29SobelEdgeDetector_OpenCV_Test12PerfTestBodyEvENK3$_0clERKN2cv3MatERS3_"(ptr noundef nonnull align 8 dereferenceable(24) %8, ptr noundef nonnull align 8 dereferenceable(96) %34, ptr noundef nonnull align 8 dereferenceable(96) %36)
          to label %37 unwind label %40

37:                                               ; preds = %32
  br label %38

38:                                               ; preds = %37
  invoke void @_ZN4perf8TestBase9stopTimerEv(ptr noundef nonnull align 8 dereferenceable(248) %11)
          to label %39 unwind label %40

39:                                               ; preds = %38
  br label %24, !llvm.loop !7

40:                                               ; preds = %44, %38, %32, %27, %24, %1
  %41 = landingpad { ptr, i32 }
          cleanup
  %42 = extractvalue { ptr, i32 } %41, 0
  store ptr %42, ptr %9, align 8
  %43 = extractvalue { ptr, i32 } %41, 1
  store i32 %43, ptr %10, align 4
  call void @_ZN2cv3MatD1Ev(ptr noundef nonnull align 8 dereferenceable(96) %7) #3
  call void @_ZN2cv3MatD1Ev(ptr noundef nonnull align 8 dereferenceable(96) %6) #3
  call void @_ZN2cv3MatD1Ev(ptr noundef nonnull align 8 dereferenceable(96) %5) #3
  br label %46

44:                                               ; preds = %30
  invoke void @_ZN4perf8TestBase11setVerifiedEv(ptr noundef nonnull align 8 dereferenceable(248) %11)
          to label %45 unwind label %40

45:                                               ; preds = %44
  call void @_ZN2cv3MatD1Ev(ptr noundef nonnull align 8 dereferenceable(96) %7) #3
  call void @_ZN2cv3MatD1Ev(ptr noundef nonnull align 8 dereferenceable(96) %6) #3
  call void @_ZN2cv3MatD1Ev(ptr noundef nonnull align 8 dereferenceable(96) %5) #3
  ret void

46:                                               ; preds = %40
  %47 = load ptr, ptr %9, align 8
  %48 = load i32, ptr %10, align 4
  %49 = insertvalue { ptr, i32 } poison, ptr %47, 0
  %50 = insertvalue { ptr, i32 } %49, i32 %48, 1
  resume { ptr, i32 } %50
}