; Function Attrs: mustprogress uwtable
define hidden void @_ZN11opencv_test29SobelEdgeDetector_OpenCV_Test12PerfTestBodyEv(ptr noundef nonnull align 8 dereferenceable(673) %0) unnamed_addr #3 align 2 personality ptr @__gxx_personality_v0 {
  %2 = alloca %"class.cv::Mat", align 8
  %3 = alloca %"class.cv::Mat", align 8
  %4 = alloca %"class.cv::Mat", align 8
  %5 = alloca %class.anon, align 8
  %6 = getelementptr inbounds i8, ptr %0, i64 248
  %7 = tail call noundef nonnull align 4 dereferenceable(8) ptr @_ZNK7testing18WithParamInterfaceIN2cv5Size_IiEEE8GetParamEv(ptr noundef nonnull align 8 dereferenceable(8) %6)
  %.sroa.01.0.copyload = load i64, ptr %7, align 4
  %8 = getelementptr inbounds i8, ptr %0, i64 256
  tail call void @_ZN11opencv_test14TestFunctional13initMatsRandUEiN2cv5Size_IiEEib(ptr noundef nonnull align 8 dereferenceable(416) %8, i32 noundef 16, i64 %.sroa.01.0.copyload, i32 noundef 16, i1 noundef zeroext false)
  call void @_ZN2cv3MatC1Ev(ptr noundef nonnull align 8 dereferenceable(96) %2) #25
  call void @_ZN2cv3MatC1Ev(ptr noundef nonnull align 8 dereferenceable(96) %3) #25
  call void @_ZN2cv3MatC1Ev(ptr noundef nonnull align 8 dereferenceable(96) %4) #25
  store ptr %2, ptr %5, align 8
  %9 = getelementptr inbounds i8, ptr %5, i64 8
  store ptr %3, ptr %9, align 8
  %10 = getelementptr inbounds i8, ptr %5, i64 16
  store ptr %4, ptr %10, align 8
  %11 = getelementptr inbounds i8, ptr %0, i64 448
  invoke fastcc void @"_ZZN11opencv_test29SobelEdgeDetector_OpenCV_Test12PerfTestBodyEvENK3$_0clERKN2cv3MatERS3_"(ptr noundef nonnull align 8 dereferenceable(24) %5, ptr noundef nonnull align 8 dereferenceable(96) %8, ptr noundef nonnull align 8 dereferenceable(96) %11)
          to label %.preheader unwind label %.loopexit.split-lp

.preheader:                                       ; preds = %1, %18
  %12 = invoke noundef zeroext i1 @_ZN4perf8TestBase4nextEv(ptr noundef nonnull align 8 dereferenceable(248) %0)
          to label %13 unwind label %.loopexit

13:                                               ; preds = %.preheader
  br i1 %12, label %14, label %.critedge

14:                                               ; preds = %13
  %15 = invoke noundef zeroext i1 @_ZN4perf8TestBase10startTimerEv(ptr noundef nonnull align 8 dereferenceable(248) %0)
          to label %16 unwind label %.loopexit

16:                                               ; preds = %14
  br i1 %15, label %17, label %.critedge

17:                                               ; preds = %16
  invoke fastcc void @"_ZZN11opencv_test29SobelEdgeDetector_OpenCV_Test12PerfTestBodyEvENK3$_0clERKN2cv3MatERS3_"(ptr noundef nonnull align 8 dereferenceable(24) %5, ptr noundef nonnull align 8 dereferenceable(96) %8, ptr noundef nonnull align 8 dereferenceable(96) %11)
          to label %18 unwind label %.loopexit

18:                                               ; preds = %17
  invoke void @_ZN4perf8TestBase9stopTimerEv(ptr noundef nonnull align 8 dereferenceable(248) %0)
          to label %.preheader unwind label %.loopexit, !llvm.loop !20

.loopexit:                                        ; preds = %.preheader, %14, %17, %18
  %lpad.loopexit = landingpad { ptr, i32 }
          cleanup
  br label %19

.loopexit.split-lp:                               ; preds = %1
  %lpad.loopexit.split-lp = landingpad { ptr, i32 }
          cleanup
  br label %19

19:                                               ; preds = %.loopexit.split-lp, %.loopexit
  %lpad.phi = phi { ptr, i32 } [ %lpad.loopexit, %.loopexit ], [ %lpad.loopexit.split-lp, %.loopexit.split-lp ]
  call void @_ZN2cv3MatD1Ev(ptr noundef nonnull align 8 dereferenceable(96) %4) #25
  call void @_ZN2cv3MatD1Ev(ptr noundef nonnull align 8 dereferenceable(96) %3) #25
  call void @_ZN2cv3MatD1Ev(ptr noundef nonnull align 8 dereferenceable(96) %2) #25
  resume { ptr, i32 } %lpad.phi

.critedge:                                        ; preds = %13, %16
  %20 = getelementptr inbounds i8, ptr %0, i64 232
  store i8 1, ptr %20, align 8
  call void @_ZN2cv3MatD1Ev(ptr noundef nonnull align 8 dereferenceable(96) %4) #25
  call void @_ZN2cv3MatD1Ev(ptr noundef nonnull align 8 dereferenceable(96) %3) #25
  call void @_ZN2cv3MatD1Ev(ptr noundef nonnull align 8 dereferenceable(96) %2) #25
  ret void
}